; ModuleID = '7/1118.c'
source_filename = "7/1118.c"
target datalayout = "e-m:e-p270:32:32-p271:32:32-p272:64:64-i64:64-f80:128-n8:16:32:64-S128"
target triple = "x86_64-pc-linux-gnu"

@.str = private unnamed_addr constant [3 x i8] c"%s\00", align 1
@.str.1 = private unnamed_addr constant [3 x i8] c"%c\00", align 1

; Function Attrs: noinline nounwind uwtable
define dso_local i32 @main(i32 %0, i8** %1) #0 {
  %3 = alloca i32, align 4
  %4 = alloca i32, align 4
  %5 = alloca i8**, align 8
  %6 = alloca [257 x i8], align 16
  %7 = alloca [257 x i8], align 16
  %8 = alloca [257 x i8], align 16
  %9 = alloca i32, align 4
  %10 = alloca i32, align 4
  %11 = alloca i32, align 4
  %12 = alloca i32, align 4
  %13 = alloca i32, align 4
  %14 = alloca i32, align 4
  %15 = alloca i32, align 4
  %16 = alloca i32, align 4
  store i32 0, i32* %3, align 4
  store i32 %0, i32* %4, align 4
  store i8** %1, i8*** %5, align 8
  %17 = getelementptr inbounds [257 x i8], [257 x i8]* %7, i64 0, i64 0
  %18 = call i32 (i8*, ...) @__isoc99_scanf(i8* getelementptr inbounds ([3 x i8], [3 x i8]* @.str, i64 0, i64 0), i8* %17)
  %19 = getelementptr inbounds [257 x i8], [257 x i8]* %6, i64 0, i64 0
  %20 = call i32 (i8*, ...) @__isoc99_scanf(i8* getelementptr inbounds ([3 x i8], [3 x i8]* @.str, i64 0, i64 0), i8* %19)
  %21 = getelementptr inbounds [257 x i8], [257 x i8]* %8, i64 0, i64 0
  %22 = call i32 (i8*, ...) @__isoc99_scanf(i8* getelementptr inbounds ([3 x i8], [3 x i8]* @.str, i64 0, i64 0), i8* %21)
  %23 = getelementptr inbounds [257 x i8], [257 x i8]* %6, i64 0, i64 0
  %24 = call i64 @strlen(i8* %23) #3
  %25 = trunc i64 %24 to i32
  store i32 %25, i32* %9, align 4
  %26 = getelementptr inbounds [257 x i8], [257 x i8]* %7, i64 0, i64 0
  %27 = call i64 @strlen(i8* %26) #3
  %28 = trunc i64 %27 to i32
  store i32 %28, i32* %10, align 4
  %29 = getelementptr inbounds [257 x i8], [257 x i8]* %8, i64 0, i64 0
  %30 = call i64 @strlen(i8* %29) #3
  %31 = trunc i64 %30 to i32
  store i32 %31, i32* %12, align 4
  store i32 0, i32* %13, align 4
  br label %32

32:                                               ; preds = %85, %2
  %33 = load i32, i32* %13, align 4
  %34 = load i32, i32* %10, align 4
  %35 = icmp slt i32 %33, %34
  br i1 %35, label %36, label %88

36:                                               ; preds = %32
  store i32 0, i32* %15, align 4
  %37 = load i32, i32* %13, align 4
  store i32 %37, i32* %14, align 4
  %38 = load i32, i32* %13, align 4
  %39 = sext i32 %38 to i64
  %40 = getelementptr inbounds [257 x i8], [257 x i8]* %7, i64 0, i64 %39
  %41 = load i8, i8* %40, align 1
  %42 = sext i8 %41 to i32
  %43 = getelementptr inbounds [257 x i8], [257 x i8]* %6, i64 0, i64 0
  %44 = load i8, i8* %43, align 16
  %45 = sext i8 %44 to i32
  %46 = icmp ne i32 %42, %45
  br i1 %46, label %47, label %48

47:                                               ; preds = %36
  br label %85

48:                                               ; preds = %36
  store i32 1, i32* %11, align 4
  store i32 1, i32* %16, align 4
  br label %49

49:                                               ; preds = %71, %48
  %50 = load i32, i32* %16, align 4
  %51 = load i32, i32* %9, align 4
  %52 = icmp slt i32 %50, %51
  br i1 %52, label %53, label %74

53:                                               ; preds = %49
  %54 = load i32, i32* %16, align 4
  %55 = sext i32 %54 to i64
  %56 = getelementptr inbounds [257 x i8], [257 x i8]* %6, i64 0, i64 %55
  %57 = load i8, i8* %56, align 1
  %58 = sext i8 %57 to i32
  %59 = load i32, i32* %13, align 4
  %60 = load i32, i32* %16, align 4
  %61 = add nsw i32 %59, %60
  %62 = sext i32 %61 to i64
  %63 = getelementptr inbounds [257 x i8], [257 x i8]* %7, i64 0, i64 %62
  %64 = load i8, i8* %63, align 1
  %65 = sext i8 %64 to i32
  %66 = icmp eq i32 %58, %65
  br i1 %66, label %67, label %70

67:                                               ; preds = %53
  %68 = load i32, i32* %11, align 4
  %69 = add nsw i32 %68, 1
  store i32 %69, i32* %11, align 4
  br label %70

70:                                               ; preds = %67, %53
  br label %71

71:                                               ; preds = %70
  %72 = load i32, i32* %16, align 4
  %73 = add nsw i32 %72, 1
  store i32 %73, i32* %16, align 4
  br label %49

74:                                               ; preds = %49
  br label %75

75:                                               ; preds = %74
  %76 = load i32, i32* %11, align 4
  %77 = load i32, i32* %9, align 4
  %78 = icmp eq i32 %76, %77
  br i1 %78, label %79, label %80

79:                                               ; preds = %75
  store i32 1, i32* %15, align 4
  br label %88

80:                                               ; preds = %75
  %81 = load i32, i32* %15, align 4
  %82 = icmp eq i32 %81, 1
  br i1 %82, label %83, label %84

83:                                               ; preds = %80
  br label %88

84:                                               ; preds = %80
  br label %85

85:                                               ; preds = %84, %47
  %86 = load i32, i32* %13, align 4
  %87 = add nsw i32 %86, 1
  store i32 %87, i32* %13, align 4
  br label %32

88:                                               ; preds = %83, %79, %32
  %89 = load i32, i32* %15, align 4
  %90 = icmp eq i32 %89, 1
  br i1 %90, label %91, label %140

91:                                               ; preds = %88
  store i32 0, i32* %13, align 4
  br label %92

92:                                               ; preds = %103, %91
  %93 = load i32, i32* %13, align 4
  %94 = load i32, i32* %14, align 4
  %95 = icmp slt i32 %93, %94
  br i1 %95, label %96, label %106

96:                                               ; preds = %92
  %97 = load i32, i32* %13, align 4
  %98 = sext i32 %97 to i64
  %99 = getelementptr inbounds [257 x i8], [257 x i8]* %7, i64 0, i64 %98
  %100 = load i8, i8* %99, align 1
  %101 = sext i8 %100 to i32
  %102 = call i32 (i8*, ...) @printf(i8* getelementptr inbounds ([3 x i8], [3 x i8]* @.str.1, i64 0, i64 0), i32 %101)
  br label %103

103:                                              ; preds = %96
  %104 = load i32, i32* %13, align 4
  %105 = add nsw i32 %104, 1
  store i32 %105, i32* %13, align 4
  br label %92

106:                                              ; preds = %92
  store i32 0, i32* %13, align 4
  br label %107

107:                                              ; preds = %118, %106
  %108 = load i32, i32* %13, align 4
  %109 = load i32, i32* %12, align 4
  %110 = icmp slt i32 %108, %109
  br i1 %110, label %111, label %121

111:                                              ; preds = %107
  %112 = load i32, i32* %13, align 4
  %113 = sext i32 %112 to i64
  %114 = getelementptr inbounds [257 x i8], [257 x i8]* %8, i64 0, i64 %113
  %115 = load i8, i8* %114, align 1
  %116 = sext i8 %115 to i32
  %117 = call i32 (i8*, ...) @printf(i8* getelementptr inbounds ([3 x i8], [3 x i8]* @.str.1, i64 0, i64 0), i32 %116)
  br label %118

118:                                              ; preds = %111
  %119 = load i32, i32* %13, align 4
  %120 = add nsw i32 %119, 1
  store i32 %120, i32* %13, align 4
  br label %107

121:                                              ; preds = %107
  %122 = load i32, i32* %14, align 4
  %123 = load i32, i32* %9, align 4
  %124 = add nsw i32 %122, %123
  store i32 %124, i32* %13, align 4
  br label %125

125:                                              ; preds = %136, %121
  %126 = load i32, i32* %13, align 4
  %127 = load i32, i32* %10, align 4
  %128 = icmp slt i32 %126, %127
  br i1 %128, label %129, label %139

129:                                              ; preds = %125
  %130 = load i32, i32* %13, align 4
  %131 = sext i32 %130 to i64
  %132 = getelementptr inbounds [257 x i8], [257 x i8]* %7, i64 0, i64 %131
  %133 = load i8, i8* %132, align 1
  %134 = sext i8 %133 to i32
  %135 = call i32 (i8*, ...) @printf(i8* getelementptr inbounds ([3 x i8], [3 x i8]* @.str.1, i64 0, i64 0), i32 %134)
  br label %136

136:                                              ; preds = %129
  %137 = load i32, i32* %13, align 4
  %138 = add nsw i32 %137, 1
  store i32 %138, i32* %13, align 4
  br label %125

139:                                              ; preds = %125
  br label %143

140:                                              ; preds = %88
  %141 = getelementptr inbounds [257 x i8], [257 x i8]* %7, i64 0, i64 0
  %142 = call i32 (i8*, ...) @printf(i8* getelementptr inbounds ([3 x i8], [3 x i8]* @.str, i64 0, i64 0), i8* %141)
  br label %143

143:                                              ; preds = %140, %139
  ret i32 0
}

declare dso_local i32 @__isoc99_scanf(i8*, ...) #1

; Function Attrs: nounwind readonly
declare dso_local i64 @strlen(i8*) #2

declare dso_local i32 @printf(i8*, ...) #1


!llvm.module.flags = !{!0}
!llvm.ident = !{!1}

!0 = !{i32 1, !"wchar_size", i32 4}
!1 = !{!"clang version 10.0.0-4ubuntu1 "}
